; Function Attrs: mustprogress uwtable
define hidden void @_ZN6google8protobuf8internal14WireFormatLite10WriteGroupEiRKNS0_11MessageLiteEPNS0_2io17CodedOutputStreamE(i32 noundef %0, ptr noundef nonnull align 8 dereferenceable(16) %1, ptr noundef %2) local_unnamed_addr #3 align 2 {
  %4 = shl i32 %0, 3
  %5 = getelementptr inbounds nuw i8, ptr %2, i64 64
  %6 = load ptr, ptr %5, align 8, !tbaa !20
  %7 = load ptr, ptr %2, align 8, !tbaa !25
  %.not.i.i.i = icmp ult ptr %6, %7
  br i1 %.not.i.i.i, label %_ZN6google8protobuf2io19EpsCopyOutputStream11EnsureSpaceEPh.exit.i.i, label %8, !prof !15

8:                                                ; preds = %3
  %9 = tail call noundef ptr @_ZN6google8protobuf2io19EpsCopyOutputStream19EnsureSpaceFallbackEPh(ptr noundef nonnull align 8 dereferenceable(80) %2, ptr noundef %6)
  br label %_ZN6google8protobuf2io19EpsCopyOutputStream11EnsureSpaceEPh.exit.i.i

_ZN6google8protobuf2io19EpsCopyOutputStream11EnsureSpaceEPh.exit.i.i: ; preds = %8, %3
  %.0.i.i.i = phi ptr [ %9, %8 ], [ %6, %3 ]
  store ptr %.0.i.i.i, ptr %5, align 8, !tbaa !20
  %10 = trunc i32 %4 to i8
  %11 = or disjoint i8 %10, 3
  store i8 %11, ptr %.0.i.i.i, align 1, !tbaa !16
  %12 = icmp ult i32 %4, 128
  br i1 %12, label %13, label %15

13:                                               ; preds = %_ZN6google8protobuf2io19EpsCopyOutputStream11EnsureSpaceEPh.exit.i.i
  %14 = getelementptr inbounds nuw i8, ptr %.0.i.i.i, i64 1
  br label %_ZN6google8protobuf2io17CodedOutputStream8WriteTagEj.exit

15:                                               ; preds = %_ZN6google8protobuf2io19EpsCopyOutputStream11EnsureSpaceEPh.exit.i.i
  %16 = or i8 %10, -125
  store i8 %16, ptr %.0.i.i.i, align 1, !tbaa !16
  %17 = lshr i32 %4, 7
  %18 = trunc i32 %17 to i8
  %19 = getelementptr inbounds nuw i8, ptr %.0.i.i.i, i64 1
  store i8 %18, ptr %19, align 1, !tbaa !16
  %20 = icmp ult i32 %4, 16384
  %21 = getelementptr inbounds nuw i8, ptr %.0.i.i.i, i64 2
  br i1 %20, label %_ZN6google8protobuf2io17CodedOutputStream8WriteTagEj.exit, label %.preheader.i.i.preheader

.preheader.i.i.preheader:                         ; preds = %15
  %scevgep17 = getelementptr i8, ptr %.0.i.i.i, i64 1
  %load_initial18 = load i8, ptr %scevgep17, align 1
  br label %.preheader.i.i

.preheader.i.i:                                   ; preds = %.preheader.i.i.preheader, %.preheader.i.i
  %store_forwarded19 = phi i8 [ %load_initial18, %.preheader.i.i.preheader ], [ %25, %.preheader.i.i ]
  %.018.i.i.i.i = phi i32 [ %17, %.preheader.i.i.preheader ], [ %24, %.preheader.i.i ]
  %.0.i.i.i.i = phi ptr [ %21, %.preheader.i.i.preheader ], [ %26, %.preheader.i.i ]
  %22 = getelementptr inbounds i8, ptr %.0.i.i.i.i, i64 -1
  %23 = or i8 %store_forwarded19, -128
  store i8 %23, ptr %22, align 1, !tbaa !16
  %24 = lshr i32 %.018.i.i.i.i, 7
  %25 = trunc i32 %24 to i8
  store i8 %25, ptr %.0.i.i.i.i, align 1, !tbaa !16
  %26 = getelementptr inbounds nuw i8, ptr %.0.i.i.i.i, i64 1
  %27 = icmp samesign ugt i32 %.018.i.i.i.i, 16383
  br i1 %27, label %.preheader.i.i, label %_ZN6google8protobuf2io17CodedOutputStream8WriteTagEj.exit, !llvm.loop !26

_ZN6google8protobuf2io17CodedOutputStream8WriteTagEj.exit: ; preds = %.preheader.i.i, %13, %15
  %.019.i.i.i.i = phi ptr [ %14, %13 ], [ %21, %15 ], [ %26, %.preheader.i.i ]
  store ptr %.019.i.i.i.i, ptr %5, align 8, !tbaa !20
  %28 = load ptr, ptr %1, align 8, !tbaa !48
  %29 = getelementptr inbounds nuw i8, ptr %28, i64 88
  %30 = load ptr, ptr %29, align 8
  %31 = tail call noundef ptr %30(ptr noundef nonnull align 8 dereferenceable(16) %1, ptr noundef nonnull %.019.i.i.i.i, ptr noundef nonnull %2)
  store ptr %31, ptr %5, align 8, !tbaa !20
  %32 = load ptr, ptr %2, align 8, !tbaa !25
  %.not.i.i.i5 = icmp ult ptr %31, %32
  br i1 %.not.i.i.i5, label %_ZN6google8protobuf2io19EpsCopyOutputStream11EnsureSpaceEPh.exit.i.i6, label %33, !prof !15

33:                                               ; preds = %_ZN6google8protobuf2io17CodedOutputStream8WriteTagEj.exit
  %34 = tail call noundef ptr @_ZN6google8protobuf2io19EpsCopyOutputStream19EnsureSpaceFallbackEPh(ptr noundef nonnull align 8 dereferenceable(80) %2, ptr noundef %31)
  br label %_ZN6google8protobuf2io19EpsCopyOutputStream11EnsureSpaceEPh.exit.i.i6

_ZN6google8protobuf2io19EpsCopyOutputStream11EnsureSpaceEPh.exit.i.i6: ; preds = %33, %_ZN6google8protobuf2io17CodedOutputStream8WriteTagEj.exit
  %.0.i.i.i7 = phi ptr [ %34, %33 ], [ %31, %_ZN6google8protobuf2io17CodedOutputStream8WriteTagEj.exit ]
  store ptr %.0.i.i.i7, ptr %5, align 8, !tbaa !20
  %35 = or disjoint i8 %10, 4
  store i8 %35, ptr %.0.i.i.i7, align 1, !tbaa !16
  br i1 %12, label %36, label %38

36:                                               ; preds = %_ZN6google8protobuf2io19EpsCopyOutputStream11EnsureSpaceEPh.exit.i.i6
  %37 = getelementptr inbounds nuw i8, ptr %.0.i.i.i7, i64 1
  br label %_ZN6google8protobuf2io17CodedOutputStream8WriteTagEj.exit12

38:                                               ; preds = %_ZN6google8protobuf2io19EpsCopyOutputStream11EnsureSpaceEPh.exit.i.i6
  %39 = or i8 %10, -124
  store i8 %39, ptr %.0.i.i.i7, align 1, !tbaa !16
  %40 = lshr i32 %4, 7
  %41 = trunc i32 %40 to i8
  %42 = getelementptr inbounds nuw i8, ptr %.0.i.i.i7, i64 1
  store i8 %41, ptr %42, align 1, !tbaa !16
  %43 = icmp ult i32 %4, 16384
  %44 = getelementptr inbounds nuw i8, ptr %.0.i.i.i7, i64 2
  br i1 %43, label %_ZN6google8protobuf2io17CodedOutputStream8WriteTagEj.exit12, label %.preheader.i.i8.preheader

.preheader.i.i8.preheader:                        ; preds = %38
  %scevgep = getelementptr i8, ptr %.0.i.i.i7, i64 1
  %load_initial = load i8, ptr %scevgep, align 1
  br label %.preheader.i.i8

.preheader.i.i8:                                  ; preds = %.preheader.i.i8.preheader, %.preheader.i.i8
  %store_forwarded = phi i8 [ %load_initial, %.preheader.i.i8.preheader ], [ %48, %.preheader.i.i8 ]
  %.018.i.i.i.i9 = phi i32 [ %40, %.preheader.i.i8.preheader ], [ %47, %.preheader.i.i8 ]
  %.0.i.i.i.i10 = phi ptr [ %44, %.preheader.i.i8.preheader ], [ %49, %.preheader.i.i8 ]
  %45 = getelementptr inbounds i8, ptr %.0.i.i.i.i10, i64 -1
  %46 = or i8 %store_forwarded, -128
  store i8 %46, ptr %45, align 1, !tbaa !16
  %47 = lshr i32 %.018.i.i.i.i9, 7
  %48 = trunc i32 %47 to i8
  store i8 %48, ptr %.0.i.i.i.i10, align 1, !tbaa !16
  %49 = getelementptr inbounds nuw i8, ptr %.0.i.i.i.i10, i64 1
  %50 = icmp samesign ugt i32 %.018.i.i.i.i9, 16383
  br i1 %50, label %.preheader.i.i8, label %_ZN6google8protobuf2io17CodedOutputStream8WriteTagEj.exit12, !llvm.loop !26

_ZN6google8protobuf2io17CodedOutputStream8WriteTagEj.exit12: ; preds = %.preheader.i.i8, %36, %38
  %.019.i.i.i.i11 = phi ptr [ %37, %36 ], [ %44, %38 ], [ %49, %.preheader.i.i8 ]
  store ptr %.019.i.i.i.i11, ptr %5, align 8, !tbaa !20
  ret void
}